; Function Attrs: nounwind uwtable
define hidden signext i8 @nfaExecTamarama_Q(ptr noundef %0, ptr noundef captures(none) %1, i64 noundef %2) local_unnamed_addr #0 {
  %4 = alloca %struct.mq, align 8
  call void @llvm.lifetime.start.p0(i64 344, ptr nonnull %4) #7
  %5 = getelementptr inbounds nuw i8, ptr %0, i64 64
  %6 = getelementptr inbounds nuw i8, ptr %1, i64 8
  %7 = getelementptr inbounds nuw i8, ptr %1, i64 12
  %8 = load i32, ptr %6, align 8
  %9 = load i32, ptr %7, align 4
  %10 = icmp ult i32 %8, %9
  br i1 %10, label %.lr.ph, label %.critedge.thread31

.lr.ph:                                           ; preds = %3
  %11 = getelementptr i8, ptr %1, i64 112
  %12 = getelementptr inbounds nuw i8, ptr %4, i64 80
  %13 = getelementptr inbounds nuw i8, ptr %1, i64 80
  %14 = getelementptr inbounds nuw i8, ptr %1, i64 72
  %15 = zext i32 %8 to i64
  %.idx.i41 = mul nuw nsw i64 %15, 24
  %16 = getelementptr i8, ptr %11, i64 %.idx.i41
  %17 = load i64, ptr %16, align 8
  %.not42 = icmp sgt i64 %17, %2
  br i1 %.not42, label %.critedge, label %.lr.ph43

18:                                               ; preds = %.lr.ph43
  %19 = load i32, ptr %6, align 8
  %20 = load i32, ptr %7, align 4
  %21 = icmp ult i32 %19, %20
  br i1 %21, label %22, label %.critedge.thread

22:                                               ; preds = %18
  %23 = zext i32 %19 to i64
  %.idx.i = mul nuw nsw i64 %23, 24
  %24 = getelementptr i8, ptr %11, i64 %.idx.i
  %25 = load i64, ptr %24, align 8
  %.not = icmp sgt i64 %25, %2
  br i1 %.not, label %.critedge, label %.lr.ph43

.lr.ph43:                                         ; preds = %.lr.ph, %22
  call fastcc void @updateQueues(ptr noundef nonnull %5, ptr noundef nonnull %1, ptr noundef %4)
  %26 = load ptr, ptr %4, align 8
  %27 = call signext i8 @nfaQueueExec_raw(ptr noundef %26, ptr noundef nonnull %4, i64 noundef %2) #7
  %28 = load i8, ptr %12, align 8
  store i8 %28, ptr %13, align 8
  %29 = load ptr, ptr %14, align 8
  %30 = getelementptr inbounds nuw i8, ptr %29, i64 328
  %31 = load i8, ptr %30, align 8
  %32 = and i8 %31, 11
  %.not16 = icmp eq i8 %32, 0
  br i1 %.not16, label %18, label %.critedge.thread

.critedge:                                        ; preds = %22, %.lr.ph
  %.026.lcssa = phi i8 [ 1, %.lr.ph ], [ %27, %22 ]
  br i1 %.not42, label %.critedge.thread31, label %.critedge.thread

.critedge.thread:                                 ; preds = %18, %.lr.ph43, %.critedge
  %.121 = phi i8 [ %.026.lcssa, %.critedge ], [ %27, %.lr.ph43 ], [ %27, %18 ]
  call fastcc void @copyBack(ptr noundef nonnull %5, ptr noundef nonnull %1, ptr noundef %4)
  br label %.critedge.thread31

.critedge.thread31:                               ; preds = %3, %.critedge.thread, %.critedge
  %.122 = phi i8 [ %.121, %.critedge.thread ], [ %.026.lcssa, %.critedge ], [ 1, %3 ]
  call void @llvm.lifetime.end.p0(i64 344, ptr nonnull %4) #7
  ret i8 %.122
}